; Function Attrs: nounwind uwtable
define range(i32 0, 2) i32 @ossl_quic_wire_encode_frame_stop_sending(ptr noundef %0, ptr noundef readonly captures(none) %1) local_unnamed_addr #2 {
  %3 = tail call i32 @WPACKET_quic_write_vlint(ptr noundef %0, i64 noundef 5) #12
  %.not = icmp eq i32 %3, 0
  br i1 %.not, label %11, label %4

4:                                                ; preds = %2
  %5 = load i64, ptr %1, align 8, !tbaa !26
  %6 = tail call i32 @WPACKET_quic_write_vlint(ptr noundef %0, i64 noundef %5) #12
  %.not5 = icmp eq i32 %6, 0
  br i1 %.not5, label %11, label %7

7:                                                ; preds = %4
  %8 = getelementptr inbounds nuw i8, ptr %1, i64 8
  %9 = load i64, ptr %8, align 8, !tbaa !28
  %10 = tail call i32 @WPACKET_quic_write_vlint(ptr noundef %0, i64 noundef %9) #12
  %.not6 = icmp ne i32 %10, 0
  %spec.select = zext i1 %.not6 to i32
  br label %11

11:                                               ; preds = %7, %2, %4
  %.0 = phi i32 [ 0, %4 ], [ 0, %2 ], [ %spec.select, %7 ]
  ret i32 %.0
}